; Function Attrs: null_pointer_is_valid sspstrong uwtable
define internal i32 @frstrans_dissect_RequestUpdates_response(ptr noundef %0, i32 noundef %1, ptr noundef %2, ptr noundef %3, ptr noundef initializes((72, 80)) %4, ptr noundef %5) #0 {
  %7 = alloca i32, align 4
  call void @llvm.lifetime.start.p0(i64 4, ptr nonnull %7) #4
  %8 = getelementptr inbounds nuw i8, ptr %4, i64 72
  store ptr @.str.219, ptr %8, align 8
  %9 = load i32, ptr @hf_frstrans_frstrans_RequestUpdates_frs_update, align 4
  %10 = tail call i32 @dissect_ndr_toplevel_pointer(ptr noundef %0, i32 noundef %1, ptr noundef %2, ptr noundef %3, ptr noundef %4, ptr noundef %5, ptr noundef nonnull @frstrans_dissect_element_RequestUpdates_frs_update_, i32 noundef 1, ptr noundef nonnull @.str.239, i32 noundef %9)
  %11 = tail call i32 @dissect_deferred_pointers(ptr noundef %2, ptr noundef %0, i32 noundef %10, ptr noundef %4, ptr noundef %5)
  %12 = load i32, ptr @hf_frstrans_frstrans_RequestUpdates_update_count, align 4
  %13 = tail call i32 @dissect_ndr_toplevel_pointer(ptr noundef %0, i32 noundef %11, ptr noundef %2, ptr noundef %3, ptr noundef %4, ptr noundef %5, ptr noundef nonnull @frstrans_dissect_element_RequestUpdates_update_count_, i32 noundef 1, ptr noundef nonnull @.str.240, i32 noundef %12)
  %14 = tail call i32 @dissect_deferred_pointers(ptr noundef %2, ptr noundef %0, i32 noundef %13, ptr noundef %4, ptr noundef %5)
  %15 = load i32, ptr @hf_frstrans_frstrans_RequestUpdates_update_status, align 4
  %16 = tail call i32 @dissect_ndr_toplevel_pointer(ptr noundef %0, i32 noundef %14, ptr noundef %2, ptr noundef %3, ptr noundef %4, ptr noundef %5, ptr noundef nonnull @frstrans_dissect_element_RequestUpdates_update_status_, i32 noundef 1, ptr noundef nonnull @.str.241, i32 noundef %15)
  %17 = tail call i32 @dissect_deferred_pointers(ptr noundef %2, ptr noundef %0, i32 noundef %16, ptr noundef %4, ptr noundef %5)
  %18 = load i32, ptr @hf_frstrans_frstrans_RequestUpdates_gvsn_db_guid, align 4
  %19 = tail call i32 @dissect_ndr_toplevel_pointer(ptr noundef %0, i32 noundef %17, ptr noundef %2, ptr noundef %3, ptr noundef %4, ptr noundef %5, ptr noundef nonnull @frstrans_dissect_element_RequestUpdates_gvsn_db_guid_, i32 noundef 1, ptr noundef nonnull @.str.242, i32 noundef %18)
  %20 = tail call i32 @dissect_deferred_pointers(ptr noundef %2, ptr noundef %0, i32 noundef %19, ptr noundef %4, ptr noundef %5)
  %21 = load i32, ptr @hf_frstrans_frstrans_RequestUpdates_gvsn_version, align 4
  %22 = tail call i32 @dissect_ndr_toplevel_pointer(ptr noundef %0, i32 noundef %20, ptr noundef %2, ptr noundef %3, ptr noundef %4, ptr noundef %5, ptr noundef nonnull @frstrans_dissect_element_RequestUpdates_gvsn_version_, i32 noundef 1, ptr noundef nonnull @.str.243, i32 noundef %21)
  %23 = tail call i32 @dissect_deferred_pointers(ptr noundef %2, ptr noundef %0, i32 noundef %22, ptr noundef %4, ptr noundef %5)
  %24 = load i32, ptr @hf_frstrans_werror, align 4
  %25 = call i32 @dissect_ndr_uint32(ptr noundef %0, i32 noundef %23, ptr noundef %2, ptr noundef %3, ptr noundef %4, ptr noundef %5, i32 noundef %24, ptr noundef nonnull %7)
  %26 = load i32, ptr %7, align 4
  %.not = icmp eq i32 %26, 0
  br i1 %.not, label %31, label %27

27:                                               ; preds = %6
  %28 = getelementptr inbounds nuw i8, ptr %2, i64 8
  %29 = load ptr, ptr %28, align 8
  %30 = call ptr @val_to_str_ext(i32 noundef %26, ptr noundef nonnull @WERR_errors_ext, ptr noundef nonnull @.str.235)
  call void (ptr, i32, ptr, ...) @col_append_fstr(ptr noundef %29, i32 noundef 25, ptr noundef nonnull @.str.234, ptr noundef %30)
  br label %31

31:                                               ; preds = %27, %6
  call void @llvm.lifetime.end.p0(i64 4, ptr nonnull %7) #4
  ret i32 %25
}